target datalayout = "e-m:e-p270:32:32-p271:32:32-p272:64:64-i64:64-i128:128-f80:128-n8:16:32:64-S128"
target triple = "x86_64-pc-linux-gnu"

%struct.ParamListInfoData = type { ptr, ptr, ptr, ptr, ptr, ptr, ptr, i32, [0 x %struct.ParamExternData] }
%struct.ParamExternData = type { i64, i8, i16, i32 }

; Function Attrs: nounwind uwtable
define dso_local ptr @makeParamList(i32 noundef %0) #0 {
  %2 = alloca i32, align 4
  %3 = alloca ptr, align 8
  %4 = alloca i64, align 8
  store i32 %0, ptr %2, align 4
  call void @llvm.lifetime.start.p0(i64 8, ptr %3) #5
  call void @llvm.lifetime.start.p0(i64 8, ptr %4) #5
  %5 = load i32, ptr %2, align 4
  %6 = sext i32 %5 to i64
  %7 = mul i64 %6, 16
  %8 = add i64 64, %7
  store i64 %8, ptr %4, align 8
  %9 = load i64, ptr %4, align 8
  %10 = call ptr @palloc(i64 noundef %9)
  store ptr %10, ptr %3, align 8
  %11 = load ptr, ptr %3, align 8
  %12 = getelementptr inbounds nuw %struct.ParamListInfoData, ptr %11, i32 0, i32 0
  store ptr null, ptr %12, align 8
  %13 = load ptr, ptr %3, align 8
  %14 = getelementptr inbounds nuw %struct.ParamListInfoData, ptr %13, i32 0, i32 1
  store ptr null, ptr %14, align 8
  %15 = load ptr, ptr %3, align 8
  %16 = getelementptr inbounds nuw %struct.ParamListInfoData, ptr %15, i32 0, i32 2
  store ptr null, ptr %16, align 8
  %17 = load ptr, ptr %3, align 8
  %18 = getelementptr inbounds nuw %struct.ParamListInfoData, ptr %17, i32 0, i32 3
  store ptr null, ptr %18, align 8
  %19 = load ptr, ptr %3, align 8
  %20 = getelementptr inbounds nuw %struct.ParamListInfoData, ptr %19, i32 0, i32 4
  store ptr @paramlist_parser_setup, ptr %20, align 8
  %21 = load ptr, ptr %3, align 8
  %22 = load ptr, ptr %3, align 8
  %23 = getelementptr inbounds nuw %struct.ParamListInfoData, ptr %22, i32 0, i32 5
  store ptr %21, ptr %23, align 8
  %24 = load ptr, ptr %3, align 8
  %25 = getelementptr inbounds nuw %struct.ParamListInfoData, ptr %24, i32 0, i32 6
  store ptr null, ptr %25, align 8
  %26 = load i32, ptr %2, align 4
  %27 = load ptr, ptr %3, align 8
  %28 = getelementptr inbounds nuw %struct.ParamListInfoData, ptr %27, i32 0, i32 7
  store i32 %26, ptr %28, align 8
  %29 = load ptr, ptr %3, align 8
  call void @llvm.lifetime.end.p0(i64 8, ptr %4) #5
  call void @llvm.lifetime.end.p0(i64 8, ptr %3) #5
  ret ptr %29
}

; Function Attrs: nounwind uwtable
define dso_local ptr @RestoreParamList(ptr noundef %0) #0 {
  %2 = alloca ptr, align 8
  %3 = alloca ptr, align 8
  %4 = alloca i32, align 4
  %5 = alloca i32, align 4
  %6 = alloca ptr, align 8
  store ptr %0, ptr %2, align 8
  call void @llvm.lifetime.start.p0(i64 8, ptr %3) #5
  call void @llvm.lifetime.start.p0(i64 4, ptr %4) #5
  %7 = load ptr, ptr %2, align 8
  %8 = load ptr, ptr %7, align 8
  call void @llvm.memcpy.p0.p0.i64(ptr align 4 %4, ptr align 1 %8, i64 4, i1 false)
  %9 = load ptr, ptr %2, align 8
  %10 = load ptr, ptr %9, align 8
  %11 = getelementptr inbounds nuw i8, ptr %10, i64 4
  store ptr %11, ptr %9, align 8
  %12 = load i32, ptr %4, align 4
  %13 = call ptr @makeParamList(i32 noundef %12)
  store ptr %13, ptr %3, align 8
  call void @llvm.lifetime.start.p0(i64 4, ptr %5) #5
  store i32 0, ptr %5, align 4
  br label %14

14:                                               ; preds = %45, %1
  %15 = load i32, ptr %5, align 4
  %16 = load i32, ptr %4, align 4
  %17 = icmp slt i32 %15, %16
  br i1 %17, label %19, label %18

18:                                               ; preds = %14
  call void @llvm.lifetime.end.p0(i64 4, ptr %5) #5
  br label %48

19:                                               ; preds = %14
  call void @llvm.lifetime.start.p0(i64 8, ptr %6) #5
  %20 = load ptr, ptr %3, align 8
  %21 = getelementptr inbounds nuw %struct.ParamListInfoData, ptr %20, i32 0, i32 8
  %22 = load i32, ptr %5, align 4
  %23 = sext i32 %22 to i64
  %24 = getelementptr inbounds [0 x %struct.ParamExternData], ptr %21, i64 0, i64 %23
  store ptr %24, ptr %6, align 8
  %25 = load ptr, ptr %6, align 8
  %26 = getelementptr inbounds nuw %struct.ParamExternData, ptr %25, i32 0, i32 3
  %27 = load ptr, ptr %2, align 8
  %28 = load ptr, ptr %27, align 8
  call void @llvm.memcpy.p0.p0.i64(ptr align 4 %26, ptr align 1 %28, i64 4, i1 false)
  %29 = load ptr, ptr %2, align 8
  %30 = load ptr, ptr %29, align 8
  %31 = getelementptr inbounds nuw i8, ptr %30, i64 4
  store ptr %31, ptr %29, align 8
  %32 = load ptr, ptr %6, align 8
  %33 = getelementptr inbounds nuw %struct.ParamExternData, ptr %32, i32 0, i32 2
  %34 = load ptr, ptr %2, align 8
  %35 = load ptr, ptr %34, align 8
  call void @llvm.memcpy.p0.p0.i64(ptr align 2 %33, ptr align 1 %35, i64 2, i1 false)
  %36 = load ptr, ptr %2, align 8
  %37 = load ptr, ptr %36, align 8
  %38 = getelementptr inbounds nuw i8, ptr %37, i64 2
  store ptr %38, ptr %36, align 8
  %39 = load ptr, ptr %2, align 8
  %40 = load ptr, ptr %6, align 8
  %41 = getelementptr inbounds nuw %struct.ParamExternData, ptr %40, i32 0, i32 1
  %42 = call i64 @datumRestore(ptr noundef %39, ptr noundef %41)
  %43 = load ptr, ptr %6, align 8
  %44 = getelementptr inbounds nuw %struct.ParamExternData, ptr %43, i32 0, i32 0
  store i64 %42, ptr %44, align 8
  call void @llvm.lifetime.end.p0(i64 8, ptr %6) #5
  br label %45

45:                                               ; preds = %19
  %46 = load i32, ptr %5, align 4
  %47 = add i32 %46, 1
  store i32 %47, ptr %5, align 4
  br label %14, !llvm.loop !10

48:                                               ; preds = %18
  %49 = load ptr, ptr %3, align 8
  call void @llvm.lifetime.end.p0(i64 4, ptr %4) #5
  call void @llvm.lifetime.end.p0(i64 8, ptr %3) #5
  ret ptr %49
}