; Function Attrs: nounwind uwtable
define dso_local noundef ptr @RestoreParamList(ptr noundef %0) local_unnamed_addr #0 {
  %2 = load ptr, ptr %0, align 8
  %.0.copyload = load i32, ptr %2, align 1
  %3 = getelementptr inbounds nuw i8, ptr %2, i64 4
  store ptr %3, ptr %0, align 8
  %4 = sext i32 %.0.copyload to i64
  %5 = shl nsw i64 %4, 4
  %6 = add nsw i64 %5, 64
  %7 = tail call ptr @palloc(i64 noundef %6) #7
  %8 = getelementptr inbounds nuw i8, ptr %7, i64 32
  tail call void @llvm.memset.p0.i64(ptr noundef nonnull align 8 dereferenceable(32) %7, i8 0, i64 32, i1 false)
  store ptr @paramlist_parser_setup, ptr %8, align 8
  %9 = getelementptr inbounds nuw i8, ptr %7, i64 40
  store ptr %7, ptr %9, align 8
  %10 = getelementptr inbounds nuw i8, ptr %7, i64 48
  store ptr null, ptr %10, align 8
  %11 = getelementptr inbounds nuw i8, ptr %7, i64 56
  store i32 %.0.copyload, ptr %11, align 8
  %12 = icmp sgt i32 %.0.copyload, 0
  br i1 %12, label %.lr.ph, label %._crit_edge

.lr.ph:                                           ; preds = %1
  %13 = getelementptr inbounds nuw i8, ptr %7, i64 64
  %wide.trip.count = zext nneg i32 %.0.copyload to i64
  br label %14

._crit_edge:                                      ; preds = %14, %1
  ret ptr %7

14:                                               ; preds = %.lr.ph, %14
  %indvars.iv = phi i64 [ 0, %.lr.ph ], [ %indvars.iv.next, %14 ]
  %15 = getelementptr inbounds nuw [0 x %struct.ParamExternData], ptr %13, i64 0, i64 %indvars.iv
  %16 = getelementptr inbounds nuw i8, ptr %15, i64 12
  %17 = load ptr, ptr %0, align 8
  %18 = load i32, ptr %17, align 1
  store i32 %18, ptr %16, align 4
  %19 = load ptr, ptr %0, align 8
  %20 = getelementptr inbounds nuw i8, ptr %19, i64 4
  store ptr %20, ptr %0, align 8
  %21 = getelementptr inbounds nuw i8, ptr %15, i64 10
  %22 = load i16, ptr %20, align 1
  store i16 %22, ptr %21, align 2
  %23 = load ptr, ptr %0, align 8
  %24 = getelementptr inbounds nuw i8, ptr %23, i64 2
  store ptr %24, ptr %0, align 8
  %25 = getelementptr inbounds nuw i8, ptr %15, i64 8
  %26 = tail call i64 @datumRestore(ptr noundef nonnull %0, ptr noundef nonnull %25) #7
  store i64 %26, ptr %15, align 8
  %indvars.iv.next = add nuw nsw i64 %indvars.iv, 1
  %exitcond.not = icmp eq i64 %indvars.iv.next, %wide.trip.count
  br i1 %exitcond.not, label %._crit_edge, label %14, !llvm.loop !10
}